target datalayout = "e-m:e-p270:32:32-p271:32:32-p272:64:64-i64:64-i128:128-f80:128-n8:16:32:64-S128"
target triple = "x86_64-pc-linux-gnu"

%struct.JNINativeInterface_ = type { ptr, ptr, ptr, ptr, ptr, ptr, ptr, ptr, ptr, ptr, ptr, ptr, ptr, ptr, ptr, ptr, ptr, ptr, ptr, ptr, ptr, ptr, ptr, ptr, ptr, ptr, ptr, ptr, ptr, ptr, ptr, ptr, ptr, ptr, ptr, ptr, ptr, ptr, ptr, ptr, ptr, ptr, ptr, ptr, ptr, ptr, ptr, ptr, ptr, ptr, ptr, ptr, ptr, ptr, ptr, ptr, ptr, ptr, ptr, ptr, ptr, ptr, ptr, ptr, ptr, ptr, ptr, ptr, ptr, ptr, ptr, ptr, ptr, ptr, ptr, ptr, ptr, ptr, ptr, ptr, ptr, ptr, ptr, ptr, ptr, ptr, ptr, ptr, ptr, ptr, ptr, ptr, ptr, ptr, ptr, ptr, ptr, ptr, ptr, ptr, ptr, ptr, ptr, ptr, ptr, ptr, ptr, ptr, ptr, ptr, ptr, ptr, ptr, ptr, ptr, ptr, ptr, ptr, ptr, ptr, ptr, ptr, ptr, ptr, ptr, ptr, ptr, ptr, ptr, ptr, ptr, ptr, ptr, ptr, ptr, ptr, ptr, ptr, ptr, ptr, ptr, ptr, ptr, ptr, ptr, ptr, ptr, ptr, ptr, ptr, ptr, ptr, ptr, ptr, ptr, ptr, ptr, ptr, ptr, ptr, ptr, ptr, ptr, ptr, ptr, ptr, ptr, ptr, ptr, ptr, ptr, ptr, ptr, ptr, ptr, ptr, ptr, ptr, ptr, ptr, ptr, ptr, ptr, ptr, ptr, ptr, ptr, ptr, ptr, ptr, ptr, ptr, ptr, ptr, ptr, ptr, ptr, ptr, ptr, ptr, ptr, ptr, ptr, ptr, ptr, ptr, ptr, ptr, ptr, ptr, ptr, ptr, ptr, ptr, ptr, ptr, ptr, ptr, ptr, ptr, ptr, ptr, ptr, ptr, ptr, ptr, ptr, ptr, ptr, ptr, ptr, ptr, ptr, ptr, ptr }
%struct.gss_buffer_desc_struct = type { i64, ptr }
%struct.GSS_FUNCTION_TABLE = type { ptr, ptr, ptr, ptr, ptr, ptr, ptr, ptr, ptr, ptr, ptr, ptr, ptr, ptr, ptr, ptr, ptr, ptr, ptr, ptr, ptr, ptr, ptr, ptr, ptr, ptr, ptr, ptr, ptr }

@ftab = external global ptr, align 8

; Function Attrs: nounwind uwtable
define hidden ptr @getJavaBuffer(ptr noundef %0, ptr noundef %1) #0 {
  %3 = alloca ptr, align 8
  %4 = alloca ptr, align 8
  %5 = alloca ptr, align 8
  %6 = alloca ptr, align 8
  %7 = alloca i32, align 4
  store ptr %0, ptr %4, align 8
  store ptr %1, ptr %5, align 8
  store ptr null, ptr %6, align 8
  %8 = load ptr, ptr %5, align 8
  %9 = icmp ne ptr %8, null
  br i1 %9, label %10, label %63

10:                                               ; preds = %2
  %11 = load ptr, ptr %5, align 8
  %12 = icmp ne ptr %11, null
  br i1 %12, label %13, label %55

13:                                               ; preds = %10
  %14 = load ptr, ptr %5, align 8
  %15 = getelementptr inbounds %struct.gss_buffer_desc_struct, ptr %14, i32 0, i32 0
  %16 = load i64, ptr %15, align 8
  %17 = icmp ne i64 %16, 0
  br i1 %17, label %18, label %55

18:                                               ; preds = %13
  %19 = load ptr, ptr %4, align 8
  %20 = load ptr, ptr %19, align 8
  %21 = getelementptr inbounds %struct.JNINativeInterface_, ptr %20, i32 0, i32 176
  %22 = load ptr, ptr %21, align 8
  %23 = load ptr, ptr %4, align 8
  %24 = load ptr, ptr %5, align 8
  %25 = getelementptr inbounds %struct.gss_buffer_desc_struct, ptr %24, i32 0, i32 0
  %26 = load i64, ptr %25, align 8
  %27 = trunc i64 %26 to i32
  %28 = call ptr %22(ptr noundef %23, i32 noundef %27)
  store ptr %28, ptr %6, align 8
  %29 = load ptr, ptr %6, align 8
  %30 = icmp eq ptr %29, null
  br i1 %30, label %31, label %32

31:                                               ; preds = %18
  br label %56

32:                                               ; preds = %18
  %33 = load ptr, ptr %4, align 8
  %34 = load ptr, ptr %33, align 8
  %35 = getelementptr inbounds %struct.JNINativeInterface_, ptr %34, i32 0, i32 208
  %36 = load ptr, ptr %35, align 8
  %37 = load ptr, ptr %4, align 8
  %38 = load ptr, ptr %6, align 8
  %39 = load ptr, ptr %5, align 8
  %40 = getelementptr inbounds %struct.gss_buffer_desc_struct, ptr %39, i32 0, i32 0
  %41 = load i64, ptr %40, align 8
  %42 = trunc i64 %41 to i32
  %43 = load ptr, ptr %5, align 8
  %44 = getelementptr inbounds %struct.gss_buffer_desc_struct, ptr %43, i32 0, i32 1
  %45 = load ptr, ptr %44, align 8
  call void %36(ptr noundef %37, ptr noundef %38, i32 noundef 0, i32 noundef %42, ptr noundef %45)
  %46 = load ptr, ptr %4, align 8
  %47 = load ptr, ptr %46, align 8
  %48 = getelementptr inbounds %struct.JNINativeInterface_, ptr %47, i32 0, i32 228
  %49 = load ptr, ptr %48, align 8
  %50 = load ptr, ptr %4, align 8
  %51 = call zeroext i8 %49(ptr noundef %50)
  %52 = icmp ne i8 %51, 0
  br i1 %52, label %53, label %54

53:                                               ; preds = %32
  store ptr null, ptr %6, align 8
  br label %54

54:                                               ; preds = %53, %32
  br label %55

55:                                               ; preds = %54, %13, %10
  br label %56

56:                                               ; preds = %55, %31
  %57 = load ptr, ptr @ftab, align 8
  %58 = getelementptr inbounds %struct.GSS_FUNCTION_TABLE, ptr %57, i32 0, i32 28
  %59 = load ptr, ptr %58, align 8
  %60 = load ptr, ptr %5, align 8
  %61 = call i32 %59(ptr noundef %7, ptr noundef %60)
  %62 = load ptr, ptr %6, align 8
  store ptr %62, ptr %3, align 8
  br label %64

63:                                               ; preds = %2
  store ptr null, ptr %3, align 8
  br label %64

64:                                               ; preds = %63, %56
  %65 = load ptr, ptr %3, align 8
  ret ptr %65
}