; Function Attrs: nounwind uwtable
define hidden ptr @getJavaBuffer(ptr noundef %0, ptr noundef %1) local_unnamed_addr #0 {
  %3 = alloca i32, align 4
  %.not = icmp eq ptr %1, null
  br i1 %.not, label %30, label %4

4:                                                ; preds = %2
  %5 = load i64, ptr %1, align 8
  %.not21 = icmp eq i64 %5, 0
  br i1 %.not21, label %25, label %6

6:                                                ; preds = %4
  %7 = load ptr, ptr %0, align 8
  %8 = getelementptr inbounds i8, ptr %7, i64 1408
  %9 = load ptr, ptr %8, align 8
  %10 = trunc i64 %5 to i32
  %11 = tail call ptr %9(ptr noundef nonnull %0, i32 noundef %10) #12
  %12 = icmp eq ptr %11, null
  br i1 %12, label %25, label %13

13:                                               ; preds = %6
  %14 = load ptr, ptr %0, align 8
  %15 = getelementptr inbounds i8, ptr %14, i64 1664
  %16 = load ptr, ptr %15, align 8
  %17 = load i64, ptr %1, align 8
  %18 = trunc i64 %17 to i32
  %19 = getelementptr inbounds i8, ptr %1, i64 8
  %20 = load ptr, ptr %19, align 8
  tail call void %16(ptr noundef nonnull %0, ptr noundef nonnull %11, i32 noundef 0, i32 noundef %18, ptr noundef %20) #12
  %21 = load ptr, ptr %0, align 8
  %22 = getelementptr inbounds i8, ptr %21, i64 1824
  %23 = load ptr, ptr %22, align 8
  %24 = tail call zeroext i8 %23(ptr noundef nonnull %0) #12
  %.not22 = icmp eq i8 %24, 0
  %spec.select = select i1 %.not22, ptr %11, ptr null
  br label %25

25:                                               ; preds = %13, %4, %6
  %.0 = phi ptr [ null, %6 ], [ null, %4 ], [ %spec.select, %13 ]
  %26 = load ptr, ptr @ftab, align 8
  %27 = getelementptr inbounds i8, ptr %26, i64 224
  %28 = load ptr, ptr %27, align 8
  %29 = call i32 %28(ptr noundef nonnull %3, ptr noundef nonnull %1) #12
  br label %30

30:                                               ; preds = %2, %25
  %.017 = phi ptr [ %.0, %25 ], [ null, %2 ]
  ret ptr %.017
}